target datalayout = "e-m:e-p270:32:32-p271:32:32-p272:64:64-i64:64-i128:128-f80:128-n8:16:32:64-S128"
target triple = "x86_64-unknown-linux-gnu"

%"class.google::protobuf::internal::InternalMetadata" = type { i64 }
%"class.google::protobuf::internal::HasBits" = type { [1 x i32] }
%"class.google::protobuf::internal::CachedSize" = type { i32 }
%"struct.google::protobuf::internal::ArenaStringPtr" = type { %"class.google::protobuf::internal::TaggedStringPtr" }
%"class.google::protobuf::internal::TaggedStringPtr" = type { ptr }
%"class.google::protobuf::compiler::Version" = type { %"class.google::protobuf::Message", %union.anon }
%"class.google::protobuf::Message" = type { %"class.google::protobuf::MessageLite" }
%"class.google::protobuf::MessageLite" = type { ptr, %"class.google::protobuf::internal::InternalMetadata" }
%union.anon = type { %"struct.google::protobuf::compiler::Version::Impl_" }
%"struct.google::protobuf::compiler::Version::Impl_" = type <{ %"class.google::protobuf::internal::HasBits", %"class.google::protobuf::internal::CachedSize", %"struct.google::protobuf::internal::ArenaStringPtr", i32, i32, i32, [4 x i8] }>

; Function Attrs: mustprogress nounwind uwtable
define linkonce_odr hidden noundef i64 @_ZNK6google8protobuf8internal15TaggedStringPtr6as_intEv(ptr noundef nonnull align 8 dereferenceable(8) %this) #5 comdat align 2 {
entry:
  %this.addr = alloca ptr, align 8
  store ptr %this, ptr %this.addr, align 8
  %this1 = load ptr, ptr %this.addr, align 8
  %ptr_ = getelementptr inbounds %"class.google::protobuf::internal::TaggedStringPtr", ptr %this1, i32 0, i32 0
  %0 = load ptr, ptr %ptr_, align 8
  %1 = ptrtoint ptr %0 to i64
  ret i64 %1
}

; Function Attrs: mustprogress nounwind uwtable
define linkonce_odr hidden noundef ptr @_ZNK6google8protobuf8internal15TaggedStringPtr3GetB5cxx11Ev(ptr noundef nonnull align 8 dereferenceable(8) %this) #5 comdat align 2 {
entry:
  %this.addr = alloca ptr, align 8
  store ptr %this, ptr %this.addr, align 8
  %this1 = load ptr, ptr %this.addr, align 8
  %call = call noundef i64 @_ZNK6google8protobuf8internal15TaggedStringPtr6as_intEv(ptr noundef nonnull align 8 dereferenceable(8) %this1)
  %and = and i64 %call, -4
  %0 = inttoptr i64 %and to ptr
  ret ptr %0
}

; Function Attrs: mustprogress uwtable
define linkonce_odr hidden void @_ZN6google8protobuf8internal14ArenaStringPtr22ClearNonDefaultToEmptyEv(ptr noundef nonnull align 8 dereferenceable(8) %this) #4 comdat align 2 {
entry:
  %this.addr = alloca ptr, align 8
  store ptr %this, ptr %this.addr, align 8
  %this1 = load ptr, ptr %this.addr, align 8
  %tagged_ptr_ = getelementptr inbounds %"struct.google::protobuf::internal::ArenaStringPtr", ptr %this1, i32 0, i32 0
  %call = call noundef ptr @_ZNK6google8protobuf8internal15TaggedStringPtr3GetB5cxx11Ev(ptr noundef nonnull align 8 dereferenceable(8) %tagged_ptr_)
  call void @_ZNSt7__cxx1112basic_stringIcSt11char_traitsIcESaIcEE5clearEv(ptr noundef nonnull align 8 dereferenceable(32) %call) #3
  ret void
}

; Function Attrs: mustprogress uwtable
define linkonce_odr hidden void @_ZN6google8protobuf8compiler7Version9MergeFromERKS2_(ptr noundef nonnull align 8 dereferenceable(48) %this, ptr noundef nonnull align 8 dereferenceable(48) %from) #4 comdat align 2 {
entry:
  %this.addr = alloca ptr, align 8
  %from.addr = alloca ptr, align 8
  store ptr %this, ptr %this.addr, align 8
  store ptr %from, ptr %from.addr, align 8
  %this1 = load ptr, ptr %this.addr, align 8
  %0 = load ptr, ptr %from.addr, align 8
  call void @_ZN6google8protobuf8compiler7Version9MergeImplERNS0_11MessageLiteERKS3_(ptr noundef nonnull align 8 dereferenceable(16) %this1, ptr noundef nonnull align 8 dereferenceable(16) %0)
  ret void
}

; Function Attrs: mustprogress uwtable
define void @_ZN6google8protobuf8compiler7Version5ClearEv(ptr noundef nonnull align 8 dereferenceable(48) %this) unnamed_addr #4 align 2 {
entry:
  %this.addr.i15 = alloca ptr, align 8
  %this.addr.i12 = alloca ptr, align 8
  %this.addr.i10 = alloca ptr, align 8
  %this.addr.i8 = alloca ptr, align 8
  %this.addr.i = alloca ptr, align 8
  %index.addr.i = alloca i32, align 4
  %this.addr = alloca ptr, align 8
  %cached_has_bits = alloca i32, align 4
  store ptr %this, ptr %this.addr, align 8
  %this1 = load ptr, ptr %this.addr, align 8
  store i32 0, ptr %cached_has_bits, align 4
  %0 = getelementptr inbounds %"class.google::protobuf::compiler::Version", ptr %this1, i32 0, i32 1
  %_has_bits_ = getelementptr inbounds %"struct.google::protobuf::compiler::Version::Impl_", ptr %0, i32 0, i32 0
  store ptr %_has_bits_, ptr %this.addr.i, align 8
  store i32 0, ptr %index.addr.i, align 4
  %this1.i = load ptr, ptr %this.addr.i, align 8
  %1 = load i32, ptr %index.addr.i, align 4
  %idxprom.i = sext i32 %1 to i64
  %arrayidx.i = getelementptr inbounds [1 x i32], ptr %this1.i, i64 0, i64 %idxprom.i
  %2 = load i32, ptr %arrayidx.i, align 4
  store i32 %2, ptr %cached_has_bits, align 4
  %3 = load i32, ptr %cached_has_bits, align 4
  %and = and i32 %3, 1
  %tobool = icmp ne i32 %and, 0
  br i1 %tobool, label %if.then, label %if.end

if.then:                                          ; preds = %entry
  %4 = getelementptr inbounds %"class.google::protobuf::compiler::Version", ptr %this1, i32 0, i32 1
  %suffix_ = getelementptr inbounds %"struct.google::protobuf::compiler::Version::Impl_", ptr %4, i32 0, i32 2
  call void @_ZN6google8protobuf8internal14ArenaStringPtr22ClearNonDefaultToEmptyEv(ptr noundef nonnull align 8 dereferenceable(8) %suffix_)
  br label %if.end

if.end:                                           ; preds = %if.then, %entry
  %5 = load i32, ptr %cached_has_bits, align 4
  %and2 = and i32 %5, 14
  %tobool3 = icmp ne i32 %and2, 0
  br i1 %tobool3, label %if.then4, label %if.end6

if.then4:                                         ; preds = %if.end
  %6 = getelementptr inbounds %"class.google::protobuf::compiler::Version", ptr %this1, i32 0, i32 1
  %major_ = getelementptr inbounds %"struct.google::protobuf::compiler::Version::Impl_", ptr %6, i32 0, i32 3
  %7 = getelementptr inbounds %"class.google::protobuf::compiler::Version", ptr %this1, i32 0, i32 1
  %patch_ = getelementptr inbounds %"struct.google::protobuf::compiler::Version::Impl_", ptr %7, i32 0, i32 5
  %8 = getelementptr inbounds %"class.google::protobuf::compiler::Version", ptr %this1, i32 0, i32 1
  %major_5 = getelementptr inbounds %"struct.google::protobuf::compiler::Version::Impl_", ptr %8, i32 0, i32 3
  %sub.ptr.lhs.cast = ptrtoint ptr %patch_ to i64
  %sub.ptr.rhs.cast = ptrtoint ptr %major_5 to i64
  %sub.ptr.sub = sub i64 %sub.ptr.lhs.cast, %sub.ptr.rhs.cast
  %add = add i64 %sub.ptr.sub, 4
  call void @llvm.memset.p0.i64(ptr align 8 %major_, i8 0, i64 %add, i1 false)
  br label %if.end6

if.end6:                                          ; preds = %if.then4, %if.end
  %9 = getelementptr inbounds %"class.google::protobuf::compiler::Version", ptr %this1, i32 0, i32 1
  %_has_bits_7 = getelementptr inbounds %"struct.google::protobuf::compiler::Version::Impl_", ptr %9, i32 0, i32 0
  store ptr %_has_bits_7, ptr %this.addr.i8, align 8
  %this1.i9 = load ptr, ptr %this.addr.i8, align 8
  call void @llvm.memset.p0.i64(ptr align 4 %this1.i9, i8 0, i64 4, i1 false)
  %_internal_metadata_ = getelementptr inbounds %"class.google::protobuf::MessageLite", ptr %this1, i32 0, i32 1
  store ptr %_internal_metadata_, ptr %this.addr.i10, align 8
  %this1.i11 = load ptr, ptr %this.addr.i10, align 8
  store ptr %this1.i11, ptr %this.addr.i12, align 8
  %this1.i13 = load ptr, ptr %this.addr.i12, align 8
  store ptr %this1.i13, ptr %this.addr.i15, align 8
  %this1.i16 = load ptr, ptr %this.addr.i15, align 8
  %10 = load i64, ptr %this1.i16, align 8
  %and.i = and i64 %10, 1
  %tobool.i = icmp ne i64 %and.i, 0
  br i1 %tobool.i, label %if.then.i, label %_ZN6google8protobuf8internal16InternalMetadata5ClearINS0_15UnknownFieldSetEEEvv.exit

if.then.i:                                        ; preds = %if.end6
  call void @_ZN6google8protobuf8internal16InternalMetadata7DoClearINS0_15UnknownFieldSetEEEvv(ptr noundef nonnull align 8 dereferenceable(8) %this1.i11)
  br label %_ZN6google8protobuf8internal16InternalMetadata5ClearINS0_15UnknownFieldSetEEEvv.exit

_ZN6google8protobuf8internal16InternalMetadata5ClearINS0_15UnknownFieldSetEEEvv.exit: ; preds = %if.then.i, %if.end6
  ret void
}

; Function Attrs: mustprogress uwtable
define void @_ZN6google8protobuf8compiler7Version8CopyFromERKS2_(ptr noundef nonnull align 8 dereferenceable(48) %this, ptr noundef nonnull align 8 dereferenceable(48) %from) #4 align 2 {
entry:
  %this.addr = alloca ptr, align 8
  %from.addr = alloca ptr, align 8
  store ptr %this, ptr %this.addr, align 8
  store ptr %from, ptr %from.addr, align 8
  %this1 = load ptr, ptr %this.addr, align 8
  %0 = load ptr, ptr %from.addr, align 8
  %cmp = icmp eq ptr %0, %this1
  br i1 %cmp, label %if.then, label %if.end

if.then:                                          ; preds = %entry
  br label %return

if.end:                                           ; preds = %entry
  call void @_ZN6google8protobuf8compiler7Version5ClearEv(ptr noundef nonnull align 8 dereferenceable(48) %this1)
  %1 = load ptr, ptr %from.addr, align 8
  call void @_ZN6google8protobuf8compiler7Version9MergeFromERKS2_(ptr noundef nonnull align 8 dereferenceable(48) %this1, ptr noundef nonnull align 8 dereferenceable(48) %1)
  br label %return

return:                                           ; preds = %if.end, %if.then
  ret void
}