; Function Attrs: mustprogress uwtable
define void @_ZN6google8protobuf8compiler7Version8CopyFromERKS2_(ptr noundef nonnull align 8 dereferenceable(48) %this, ptr noundef nonnull readonly align 8 dereferenceable(48) %from) local_unnamed_addr #3 align 2 {
entry:
  %cmp = icmp eq ptr %from, %this
  br i1 %cmp, label %return, label %if.end

if.end:                                           ; preds = %entry
  %0 = getelementptr inbounds i8, ptr %this, i64 16
  %1 = load i32, ptr %0, align 8
  %and.i = and i32 %1, 1
  %tobool.not.i = icmp eq i32 %and.i, 0
  br i1 %tobool.not.i, label %if.end.i, label %if.then.i

if.then.i:                                        ; preds = %if.end
  %suffix_.i = getelementptr inbounds i8, ptr %this, i64 24
  %2 = load ptr, ptr %suffix_.i, align 8
  %3 = ptrtoint ptr %2 to i64
  %and.i.i.i = and i64 %3, -4
  %4 = inttoptr i64 %and.i.i.i to ptr
  tail call void @_ZNSt7__cxx1112basic_stringIcSt11char_traitsIcESaIcEE5clearEv(ptr noundef nonnull align 8 dereferenceable(32) %4) #18
  br label %if.end.i

if.end.i:                                         ; preds = %if.then.i, %if.end
  %and2.i = and i32 %1, 14
  %tobool3.not.i = icmp eq i32 %and2.i, 0
  br i1 %tobool3.not.i, label %if.end6.i, label %if.then4.i

if.then4.i:                                       ; preds = %if.end.i
  %major_.i = getelementptr inbounds i8, ptr %this, i64 32
  tail call void @llvm.memset.p0.i64(ptr noundef nonnull align 8 dereferenceable(12) %major_.i, i8 0, i64 12, i1 false)
  br label %if.end6.i

if.end6.i:                                        ; preds = %if.then4.i, %if.end.i
  store i32 0, ptr %0, align 8
  %_internal_metadata_.i = getelementptr inbounds i8, ptr %this, i64 8
  %5 = load i64, ptr %_internal_metadata_.i, align 8
  %and.i.i = and i64 %5, 1
  %tobool.i.not.i = icmp eq i64 %and.i.i, 0
  br i1 %tobool.i.not.i, label %_ZN6google8protobuf8compiler7Version5ClearEv.exit, label %if.then.i.i

if.then.i.i:                                      ; preds = %if.end6.i
  tail call void @_ZN6google8protobuf8internal16InternalMetadata7DoClearINS0_15UnknownFieldSetEEEvv(ptr noundef nonnull align 8 dereferenceable(8) %_internal_metadata_.i)
  br label %_ZN6google8protobuf8compiler7Version5ClearEv.exit

_ZN6google8protobuf8compiler7Version5ClearEv.exit: ; preds = %if.end6.i, %if.then.i.i
  tail call void @_ZN6google8protobuf8compiler7Version9MergeImplERNS0_11MessageLiteERKS3_(ptr noundef nonnull align 8 dereferenceable(16) %this, ptr noundef nonnull align 8 dereferenceable(16) %from)
  br label %return

return:                                           ; preds = %entry, %_ZN6google8protobuf8compiler7Version5ClearEv.exit
  ret void
}